target datalayout = "e-m:e-p270:32:32-p271:32:32-p272:64:64-i64:64-i128:128-f80:128-n8:16:32:64-S128"
target triple = "x86_64-unknown-linux-gnu"

%"class.std::__cxx11::basic_string" = type { %"struct.std::__cxx11::basic_string<char>::_Alloc_hider", i64, %union.anon }
%"struct.std::__cxx11::basic_string<char>::_Alloc_hider" = type { ptr }
%union.anon = type { i64, [8 x i8] }
%"class.folly::Range" = type { ptr, ptr }
%"class.google::LogMessageFatal" = type { %"class.google::LogMessage" }
%"class.google::LogMessage" = type { ptr, ptr, %"struct.google::LogMessageTime" }
%"struct.google::LogMessageTime" = type { %struct.tm, i64, i32, i64 }
%struct.tm = type { i32, i32, i32, i32, i32, i32, i32, i32, i32, i64, ptr }
%"class.proxygen::HTTP1xCodec" = type <{ %"class.proxygen::HTTPCodec", %"class.std::__cxx11::basic_string", ptr, i64, i64, %"struct.proxygen::http_parser", ptr, %"class.std::unique_ptr", %"class.std::unique_ptr", %"class.std::unique_ptr.7", %"class.std::__cxx11::basic_string", %"class.folly::Range", %"class.std::__cxx11::basic_string", %"class.std::__cxx11::basic_string", %"class.std::__cxx11::basic_string", %"class.std::__cxx11::basic_string", %"class.std::__cxx11::basic_string", %"class.std::__cxx11::basic_string", %"struct.proxygen::HTTPHeaderSize", i8, i8, i8, i8, %"struct.std::pair", i32, [4 x i8] }>
%"class.proxygen::HTTPCodec" = type { ptr }
%"struct.proxygen::http_parser" = type { i8, i8, i8, i8, i32, i64, i16, i16, i16, i8, i8, ptr }
%"class.std::unique_ptr" = type { %"struct.std::__uniq_ptr_data" }
%"struct.std::__uniq_ptr_data" = type { %"class.std::__uniq_ptr_impl" }
%"class.std::__uniq_ptr_impl" = type { %"class.std::tuple" }
%"class.std::tuple" = type { %"struct.std::_Tuple_impl" }
%"struct.std::_Tuple_impl" = type { %"struct.std::_Head_base.6" }
%"struct.std::_Head_base.6" = type { ptr }
%"class.std::unique_ptr.7" = type { %"struct.std::__uniq_ptr_data.8" }
%"struct.std::__uniq_ptr_data.8" = type { %"class.std::__uniq_ptr_impl.9" }
%"class.std::__uniq_ptr_impl.9" = type { %"class.std::tuple.10" }
%"class.std::tuple.10" = type { %"struct.std::_Tuple_impl.11" }
%"struct.std::_Tuple_impl.11" = type { %"struct.std::_Head_base.14" }
%"struct.std::_Head_base.14" = type { ptr }
%"struct.proxygen::HTTPHeaderSize" = type { i32, i32, i32 }
%"struct.std::pair" = type { i8, %"class.std::__cxx11::basic_string" }
%"class.google::LogMessageVoidify" = type { i8 }

@.str.2 = private unnamed_addr constant [135 x i8] c"generated/home/dtcxzyw/WorkSpace/Projects/compilers/llvm-opt-benchmark/bench/proxygen/proxygen/proxygen/lib/http/codec/HTTP1xCodec.cpp\00", align 1
@.str.4 = private unnamed_addr constant [100 x i8] c"Check failed: parserError_ || (((enum http_errno) (&parser_)->http_errno) == HPE_PAUSED) == paused \00", align 1

; Function Attrs: mustprogress nounwind uwtable
define linkonce_odr void @_ZN6google17LogMessageVoidifyanERSo(ptr noundef nonnull align 1 dereferenceable(1) %this, ptr noundef nonnull align 8 dereferenceable(8) %0) #5 comdat align 2 {
entry:
  %this.addr = alloca ptr, align 8
  %.addr = alloca ptr, align 8
  store ptr %this, ptr %this.addr, align 8
  store ptr %0, ptr %.addr, align 8
  ret void
}

; Function Attrs: mustprogress nounwind uwtable
define linkonce_odr void @_ZN6google17LogMessageVoidifyC2Ev(ptr noundef nonnull align 1 dereferenceable(1) %this) unnamed_addr #5 comdat align 2 {
entry:
  %this.addr = alloca ptr, align 8
  store ptr %this, ptr %this.addr, align 8
  ret void
}

; Function Attrs: mustprogress uwtable
define void @_ZN8proxygen11HTTP1xCodec15setParserPausedEb(ptr noundef nonnull align 8 dereferenceable(428) %this, i1 noundef zeroext %paused) unnamed_addr #4 align 2 personality ptr @__gxx_personality_v0 {
entry:
  %this.addr = alloca ptr, align 8
  %paused.addr = alloca i8, align 1
  %ref.tmp = alloca %"class.google::LogMessageVoidify", align 1
  %ref.tmp21 = alloca %"class.google::LogMessageFatal", align 8
  %cleanup.cond = alloca i1, align 1
  %exn.slot = alloca ptr, align 8
  %ehselector.slot = alloca i32, align 4
  store ptr %this, ptr %this.addr, align 8
  %frombool = zext i1 %paused to i8
  store i8 %frombool, ptr %paused.addr, align 1
  %this1 = load ptr, ptr %this.addr, align 8
  %0 = load i8, ptr %paused.addr, align 1
  %tobool = trunc i8 %0 to i1
  %conv = zext i1 %tobool to i32
  %parserPaused_ = getelementptr inbounds %"class.proxygen::HTTP1xCodec", ptr %this1, i32 0, i32 24
  %bf.load = load i32, ptr %parserPaused_, align 8
  %bf.lshr = lshr i32 %bf.load, 4
  %bf.clear = and i32 %bf.lshr, 1
  %bf.cast = trunc i32 %bf.clear to i1
  %conv2 = zext i1 %bf.cast to i32
  %cmp = icmp eq i32 %conv, %conv2
  br i1 %cmp, label %if.then, label %lor.lhs.false

lor.lhs.false:                                    ; preds = %entry
  %parserError_ = getelementptr inbounds %"class.proxygen::HTTP1xCodec", ptr %this1, i32 0, i32 24
  %bf.load3 = load i32, ptr %parserError_, align 8
  %bf.lshr4 = lshr i32 %bf.load3, 5
  %bf.clear5 = and i32 %bf.lshr4, 1
  %bf.cast6 = trunc i32 %bf.clear5 to i1
  br i1 %bf.cast6, label %if.then, label %if.end

if.then:                                          ; preds = %lor.lhs.false, %entry
  br label %while.cond

while.cond:                                       ; preds = %cleanup.done, %if.then
  br i1 false, label %while.body, label %while.end

while.body:                                       ; preds = %while.cond
  %parserError_7 = getelementptr inbounds %"class.proxygen::HTTP1xCodec", ptr %this1, i32 0, i32 24
  %bf.load8 = load i32, ptr %parserError_7, align 8
  %bf.lshr9 = lshr i32 %bf.load8, 5
  %bf.clear10 = and i32 %bf.lshr9, 1
  %bf.cast11 = trunc i32 %bf.clear10 to i1
  store i1 false, ptr %cleanup.cond, align 1
  br i1 %bf.cast11, label %lor.end, label %lor.rhs

lor.rhs:                                          ; preds = %while.body
  %parser_ = getelementptr inbounds %"class.proxygen::HTTP1xCodec", ptr %this1, i32 0, i32 5
  %http_errno = getelementptr inbounds %"struct.proxygen::http_parser", ptr %parser_, i32 0, i32 10
  %bf.load12 = load i8, ptr %http_errno, align 1
  %bf.clear13 = and i8 %bf.load12, 127
  %conv14 = zext i8 %bf.clear13 to i32
  %cmp15 = icmp eq i32 %conv14, 37
  %conv16 = zext i1 %cmp15 to i32
  %1 = load i8, ptr %paused.addr, align 1
  %tobool17 = trunc i8 %1 to i1
  %conv18 = zext i1 %tobool17 to i32
  %cmp19 = icmp eq i32 %conv16, %conv18
  br label %lor.end

lor.end:                                          ; preds = %lor.rhs, %while.body
  %2 = phi i1 [ true, %while.body ], [ %cmp19, %lor.rhs ]
  %lnot = xor i1 %2, true
  br i1 %lnot, label %cond.false, label %cond.true

cond.true:                                        ; preds = %lor.end
  br label %cond.end

cond.false:                                       ; preds = %lor.end
  call void @_ZN6google17LogMessageVoidifyC2Ev(ptr noundef nonnull align 1 dereferenceable(1) %ref.tmp)
  call void @_ZN6google15LogMessageFatalC1EPKci(ptr noundef nonnull align 8 dereferenceable(96) %ref.tmp21, ptr noundef @.str.2, i32 noundef 146)
  store i1 true, ptr %cleanup.cond, align 1
  %call = invoke noundef nonnull align 8 dereferenceable(8) ptr @_ZN6google10LogMessage6streamEv(ptr noundef nonnull align 8 dereferenceable(96) %ref.tmp21)
          to label %invoke.cont unwind label %lpad

invoke.cont:                                      ; preds = %cond.false
  %call23 = invoke noundef nonnull align 8 dereferenceable(8) ptr @_ZStlsISt11char_traitsIcEERSt13basic_ostreamIcT_ES5_PKc(ptr noundef nonnull align 8 dereferenceable(8) %call, ptr noundef @.str.4)
          to label %invoke.cont22 unwind label %lpad

invoke.cont22:                                    ; preds = %invoke.cont
  invoke void @_ZN6google17LogMessageVoidifyanERSo(ptr noundef nonnull align 1 dereferenceable(1) %ref.tmp, ptr noundef nonnull align 8 dereferenceable(8) %call23)
          to label %invoke.cont24 unwind label %lpad

invoke.cont24:                                    ; preds = %invoke.cont22
  br label %cond.end

cond.end:                                         ; preds = %invoke.cont24, %cond.true
  %cleanup.is_active = load i1, ptr %cleanup.cond, align 1
  br i1 %cleanup.is_active, label %cleanup.action, label %cleanup.done

cleanup.action:                                   ; preds = %cond.end
  call void @_ZN6google15LogMessageFatalD1Ev(ptr noundef nonnull align 8 dereferenceable(96) %ref.tmp21) #20
  unreachable

lpad:                                             ; preds = %invoke.cont22, %invoke.cont, %cond.false
  %3 = landingpad { ptr, i32 }
          cleanup
  %4 = extractvalue { ptr, i32 } %3, 0
  store ptr %4, ptr %exn.slot, align 8
  %5 = extractvalue { ptr, i32 } %3, 1
  store i32 %5, ptr %ehselector.slot, align 4
  %cleanup.is_active25 = load i1, ptr %cleanup.cond, align 1
  br i1 %cleanup.is_active25, label %cleanup.action26, label %cleanup.done27

6:                                                ; No predecessors!
  br label %cleanup.done

cleanup.done:                                     ; preds = %6, %cond.end
  br label %while.cond, !llvm.loop !4

cleanup.action26:                                 ; preds = %lpad
  call void @_ZN6google15LogMessageFatalD1Ev(ptr noundef nonnull align 8 dereferenceable(96) %ref.tmp21) #20
  unreachable

7:                                                ; No predecessors!
  br label %cleanup.done27

cleanup.done27:                                   ; preds = %7, %lpad
  br label %eh.resume

while.end:                                        ; preds = %while.cond
  br label %return

if.end:                                           ; preds = %lor.lhs.false
  %8 = load i8, ptr %paused.addr, align 1
  %tobool28 = trunc i8 %8 to i1
  br i1 %tobool28, label %if.then29, label %if.else

if.then29:                                        ; preds = %if.end
  %parser_30 = getelementptr inbounds %"class.proxygen::HTTP1xCodec", ptr %this1, i32 0, i32 5
  %http_errno31 = getelementptr inbounds %"struct.proxygen::http_parser", ptr %parser_30, i32 0, i32 10
  %bf.load32 = load i8, ptr %http_errno31, align 1
  %bf.clear33 = and i8 %bf.load32, 127
  %conv34 = zext i8 %bf.clear33 to i32
  %cmp35 = icmp eq i32 %conv34, 0
  br i1 %cmp35, label %if.then36, label %if.end38

if.then36:                                        ; preds = %if.then29
  %parser_37 = getelementptr inbounds %"class.proxygen::HTTP1xCodec", ptr %this1, i32 0, i32 5
  call void @_ZN8proxygen17http_parser_pauseEPNS_11http_parserEi(ptr noundef %parser_37, i32 noundef 1)
  br label %if.end38

if.end38:                                         ; preds = %if.then36, %if.then29
  br label %if.end40

if.else:                                          ; preds = %if.end
  %parser_39 = getelementptr inbounds %"class.proxygen::HTTP1xCodec", ptr %this1, i32 0, i32 5
  call void @_ZN8proxygen17http_parser_pauseEPNS_11http_parserEi(ptr noundef %parser_39, i32 noundef 0)
  br label %if.end40

if.end40:                                         ; preds = %if.else, %if.end38
  %9 = load i8, ptr %paused.addr, align 1
  %tobool41 = trunc i8 %9 to i1
  %parserPaused_42 = getelementptr inbounds %"class.proxygen::HTTP1xCodec", ptr %this1, i32 0, i32 24
  %10 = zext i1 %tobool41 to i32
  %bf.load43 = load i32, ptr %parserPaused_42, align 8
  %bf.shl = shl i32 %10, 4
  %bf.clear44 = and i32 %bf.load43, -17
  %bf.set = or i32 %bf.clear44, %bf.shl
  store i32 %bf.set, ptr %parserPaused_42, align 8
  br label %return

return:                                           ; preds = %if.end40, %while.end
  ret void

eh.resume:                                        ; preds = %cleanup.done27
  %exn = load ptr, ptr %exn.slot, align 8
  %sel = load i32, ptr %ehselector.slot, align 4
  %lpad.val = insertvalue { ptr, i32 } poison, ptr %exn, 0
  %lpad.val45 = insertvalue { ptr, i32 } %lpad.val, i32 %sel, 1
  resume { ptr, i32 } %lpad.val45
}