; Function Attrs: mustprogress uwtable
define void @_ZN8proxygen11HTTP1xCodec15setParserPausedEb(ptr noundef nonnull align 8 dereferenceable(428) %this, i1 noundef zeroext %paused) unnamed_addr #3 align 2 personality ptr @__gxx_personality_v0 {
entry:
  %parserPaused_ = getelementptr inbounds i8, ptr %this, i64 424
  %bf.load = load i32, ptr %parserPaused_, align 8
  %0 = and i32 %bf.load, 16
  %1 = icmp ne i32 %0, 0
  %cmp.not = xor i1 %1, %paused
  %2 = and i32 %bf.load, 32
  %bf.cast6.not = icmp eq i32 %2, 0
  %or.cond = and i1 %bf.cast6.not, %cmp.not
  br i1 %or.cond, label %if.end, label %return

if.end:                                           ; preds = %entry
  br i1 %paused, label %if.then29, label %if.end40.sink.split

if.then29:                                        ; preds = %if.end
  %http_errno31 = getelementptr inbounds i8, ptr %this, i64 87
  %bf.load32 = load i8, ptr %http_errno31, align 1
  %bf.clear33 = and i8 %bf.load32, 127
  %cmp35 = icmp eq i8 %bf.clear33, 0
  br i1 %cmp35, label %if.end40.sink.split, label %if.end40

if.end40.sink.split:                              ; preds = %if.end, %if.then29
  %.sink = phi i32 [ 1, %if.then29 ], [ 0, %if.end ]
  %bf.shl.ph = phi i32 [ 16, %if.then29 ], [ 0, %if.end ]
  %parser_30 = getelementptr inbounds i8, ptr %this, i64 64
  tail call void @_ZN8proxygen17http_parser_pauseEPNS_11http_parserEi(ptr noundef nonnull %parser_30, i32 noundef %.sink)
  br label %if.end40

if.end40:                                         ; preds = %if.end40.sink.split, %if.then29
  %bf.shl = phi i32 [ 16, %if.then29 ], [ %bf.shl.ph, %if.end40.sink.split ]
  %bf.load43 = load i32, ptr %parserPaused_, align 8
  %bf.clear44 = and i32 %bf.load43, -17
  %bf.set = or disjoint i32 %bf.clear44, %bf.shl
  store i32 %bf.set, ptr %parserPaused_, align 8
  br label %return

return:                                           ; preds = %entry, %if.end40
  ret void
}